; Function Attrs: mustprogress uwtable
define hidden void @_ZNK19OpenColorIO_v2_5dev28BuiltinTransformRegistryImpl9createOpsEmRNS_10OpRcPtrVecE(ptr noundef nonnull readonly align 8 captures(none) dereferenceable(32) %0, i64 noundef %1, ptr noundef nonnull align 8 dereferenceable(144) %2) local_unnamed_addr #7 align 2 personality ptr @__gxx_personality_v0 {
  %4 = getelementptr inbounds nuw i8, ptr %0, i64 8
  %5 = getelementptr inbounds nuw i8, ptr %0, i64 16
  %6 = load ptr, ptr %5, align 8, !tbaa !36
  %7 = load ptr, ptr %4, align 8, !tbaa !33
  %8 = ptrtoint ptr %6 to i64
  %9 = ptrtoint ptr %7 to i64
  %10 = sub i64 %8, %9
  %11 = sdiv exact i64 %10, 96
  %.not = icmp ult i64 %1, %11
  br i1 %.not, label %17, label %12

12:                                               ; preds = %3
  %13 = tail call ptr @__cxa_allocate_exception(i64 16) #24
  invoke void @_ZN19OpenColorIO_v2_5dev9ExceptionC1EPKc(ptr noundef nonnull align 8 dereferenceable(16) %13, ptr noundef nonnull @.str.2)
          to label %14 unwind label %15

14:                                               ; preds = %12
  tail call void @__cxa_throw(ptr nonnull %13, ptr nonnull @_ZTIN19OpenColorIO_v2_5dev9ExceptionE, ptr nonnull @_ZN19OpenColorIO_v2_5dev9ExceptionD1Ev) #25
  unreachable

15:                                               ; preds = %12
  %16 = landingpad { ptr, i32 }
          cleanup
  tail call void @__cxa_free_exception(ptr nonnull %13) #24
  resume { ptr, i32 } %16

17:                                               ; preds = %3
  %18 = getelementptr inbounds nuw %"struct.OpenColorIO_v2_5dev::BuiltinTransformRegistryImpl::BuiltinData", ptr %7, i64 %1, i32 2
  %19 = getelementptr inbounds nuw i8, ptr %18, i64 16
  %20 = load ptr, ptr %19, align 8, !tbaa !37
  %.not.i.i = icmp eq ptr %20, null
  br i1 %.not.i.i, label %21, label %_ZNKSt8functionIFvRN19OpenColorIO_v2_5dev10OpRcPtrVecEEEclES2_.exit

21:                                               ; preds = %17
  tail call void @_ZSt25__throw_bad_function_callv() #25
  unreachable

_ZNKSt8functionIFvRN19OpenColorIO_v2_5dev10OpRcPtrVecEEEclES2_.exit: ; preds = %17
  %22 = getelementptr inbounds nuw i8, ptr %18, i64 24
  %23 = load ptr, ptr %22, align 8, !tbaa !47
  tail call void %23(ptr noundef nonnull align 8 dereferenceable(32) %18, ptr noundef nonnull align 8 dereferenceable(144) %2)
  ret void
}